target datalayout = "e-m:e-p270:32:32-p271:32:32-p272:64:64-i64:64-i128:128-f80:128-n8:16:32:64-S128"
target triple = "x86_64-pc-linux-gnu"

%class.OopHandle = type { ptr }
%"class.Deoptimization::UnrollBlock" = type { i32, i32, i32, i32, ptr, ptr, ptr, i8, i64, i32, i32, i64, i64 }
%class.JavaThread = type { %class.Thread, i8, %class.OopHandle, %class.OopHandle, %class.OopHandle, %class.OopHandle, %class.JavaFrameAnchor, ptr, %struct.JNIEnv_, ptr, ptr, ptr, ptr, ptr, ptr, ptr, ptr, %class.MemRegion, ptr, i8, ptr, ptr, ptr, i32, i32, %"struct.SafepointMechanism::ThreadData", ptr, ptr, i32, i32, i8, i8, i8, i8, i8, i8, i8, i32, i8, i32, i8, i8, i64, %union.anon.4, ptr, ptr, i64, i64, ptr, ptr, %class.StackOverflow, ptr, ptr, ptr, i32, i32, ptr, i32, i32, i32, ptr, ptr, i32, i64, i64, %class.StackWatermarks, %class.HandshakeState, ptr, i32, ptr, i32, i32, ptr, %class.Parker, ptr, ptr, %class.LockStack }
%class.Thread = type { %class.ThreadShadow.base, i64, [43 x i64], ptr, ptr, i32, ptr, i64, i64, %class.ThreadLocalAllocBuffer, i64, %class.ThreadHeapSampler, %class.ThreadStatisticalInfo, %class.JfrThreadLocal, ptr, ptr, ptr, ptr, ptr, ptr, i64, i32, i32, ptr, i32, i32, i32, i32, i8, ptr }
%class.ThreadShadow.base = type <{ ptr, ptr, ptr, i32 }>
%class.ThreadLocalAllocBuffer = type <{ ptr, ptr, ptr, ptr, ptr, i64, i64, i64, i64, i32, i32, i32, i32, i64, %class.AdaptiveWeightedAverage, [4 x i8] }>
%class.AdaptiveWeightedAverage = type { float, i32, i32, i8, float }
%class.ThreadHeapSampler = type { i64 }
%class.ThreadStatisticalInfo = type { i64, i64 }
%class.JfrThreadLocal = type <{ ptr, ptr, ptr, ptr, ptr, ptr, ptr, ptr, ptr, ptr, %class.RefCountHandle, i64, i64, i64, i64, i64, i64, i64, i64, i64, i64, i64, i32, i32, i32, i16, i8, i8, i8, i8, i8, [5 x i8] }>
%class.RefCountHandle = type { ptr }
%class.JavaFrameAnchor = type { ptr, ptr, ptr }
%struct.JNIEnv_ = type { ptr }
%class.MemRegion = type { ptr, i64 }
%"struct.SafepointMechanism::ThreadData" = type { i64, i64 }
%union.anon.4 = type { ptr }
%class.StackOverflow = type { i32, ptr, ptr, ptr, ptr, ptr, ptr }
%class.StackWatermarks = type { ptr }
%class.HandshakeState = type <{ ptr, %class.FilterQueue, %class.Monitor, ptr, i8, i8, i8, [5 x i8] }>
%class.FilterQueue = type { ptr }
%class.Monitor = type { %class.Mutex }
%class.Mutex = type { ptr, %class.PlatformMonitor, ptr }
%class.PlatformMonitor = type { %class.PlatformMutex, %union.pthread_cond_t }
%class.PlatformMutex = type { %union.pthread_mutex_t }
%union.pthread_mutex_t = type { %struct.__pthread_mutex_s }
%struct.__pthread_mutex_s = type { i32, i32, i32, i32, i32, i16, i16, %struct.__pthread_internal_list }
%struct.__pthread_internal_list = type { ptr, ptr }
%union.pthread_cond_t = type { %struct.__pthread_cond_s }
%struct.__pthread_cond_s = type { %union.__atomic_wide_counter, %union.__atomic_wide_counter, [2 x i32], [2 x i32], i32, i32, [2 x i32] }
%union.__atomic_wide_counter = type { i64 }
%class.Parker = type { %class.PlatformParker }
%class.PlatformParker = type { i32, i32, [1 x %union.pthread_mutex_t], [2 x %union.pthread_cond_t] }
%class.LockStack = type { i32, i64, [8 x ptr] }
%class.frame = type { %union.anon.5, ptr, ptr, ptr, i32, i8, %union.anon.6, %union.anon.7 }
%union.anon.5 = type { ptr }
%union.anon.6 = type { ptr }
%union.anon.7 = type { ptr }
%class.HandleMark = type { ptr, ptr, ptr, ptr, ptr, i64, ptr }
%class.vframeArray = type { ptr, %class.frame, %class.frame, %class.frame, ptr, i32, i32, [609 x i64], [1 x %class.vframeArrayElement] }
%class.vframeArrayElement = type { %class.frame, i32, i8, ptr, ptr, ptr, ptr }
%class.ResetNoHandleMark = type { i32 }

; Function Attrs: mustprogress nounwind uwtable
define linkonce_odr hidden void @_ZNK5frame15assert_absoluteEv(ptr noundef nonnull align 8 dereferenceable(56) %0) #1 comdat align 2 {
  %2 = alloca ptr, align 8
  store ptr %0, ptr %2, align 8
  ret void
}

; Function Attrs: mustprogress nounwind uwtable
define linkonce_odr hidden void @_ZN17ResetNoHandleMarkD2Ev(ptr noundef nonnull align 4 dereferenceable(4) %0) unnamed_addr #1 comdat align 2 {
  %2 = alloca ptr, align 8
  store ptr %0, ptr %2, align 8
  ret void
}

; Function Attrs: mustprogress nounwind uwtable
define linkonce_odr hidden noundef zeroext i8 @_ZNK14Deoptimization11UnrollBlock11return_typeEv(ptr noundef nonnull align 8 dereferenceable(80) %0) #1 comdat align 2 {
  %2 = alloca ptr, align 8
  store ptr %0, ptr %2, align 8
  %3 = load ptr, ptr %2, align 8
  %4 = getelementptr inbounds %"class.Deoptimization::UnrollBlock", ptr %3, i32 0, i32 7
  %5 = load i8, ptr %4, align 8
  ret i8 %5
}

; Function Attrs: mustprogress nounwind uwtable
define linkonce_odr hidden noundef i32 @_ZNK14Deoptimization11UnrollBlock24caller_actual_parametersEv(ptr noundef nonnull align 8 dereferenceable(80) %0) #1 comdat align 2 {
  %2 = alloca ptr, align 8
  store ptr %0, ptr %2, align 8
  %3 = load ptr, ptr %2, align 8
  %4 = getelementptr inbounds %"class.Deoptimization::UnrollBlock", ptr %3, i32 0, i32 9
  %5 = load i32, ptr %4, align 8
  ret i32 %5
}

; Function Attrs: mustprogress nounwind uwtable
define linkonce_odr hidden void @_ZN15JavaFrameAnchor16set_last_Java_spEPl(ptr noundef nonnull align 8 dereferenceable(24) %0, ptr noundef %1) #1 comdat align 2 {
  %3 = alloca ptr, align 8
  %4 = alloca ptr, align 8
  store ptr %0, ptr %3, align 8
  store ptr %1, ptr %4, align 8
  %5 = load ptr, ptr %3, align 8
  %6 = load ptr, ptr %4, align 8
  %7 = getelementptr inbounds %class.JavaFrameAnchor, ptr %5, i32 0, i32 0
  store volatile ptr %6, ptr %7, align 8
  ret void
}

; Function Attrs: mustprogress nounwind uwtable
define linkonce_odr hidden noundef ptr @_ZNK15JavaFrameAnchor12last_Java_spEv(ptr noundef nonnull align 8 dereferenceable(24) %0) #1 comdat align 2 {
  %2 = alloca ptr, align 8
  store ptr %0, ptr %2, align 8
  %3 = load ptr, ptr %2, align 8
  %4 = getelementptr inbounds %class.JavaFrameAnchor, ptr %3, i32 0, i32 0
  %5 = load volatile ptr, ptr %4, align 8
  ret ptr %5
}

; Function Attrs: mustprogress nounwind uwtable
define linkonce_odr hidden noundef ptr @_ZN10JavaThread12frame_anchorEv(ptr noundef nonnull align 8 dereferenceable(1800) %0) #1 comdat align 2 {
  %2 = alloca ptr, align 8
  store ptr %0, ptr %2, align 8
  %3 = load ptr, ptr %2, align 8
  %4 = getelementptr inbounds %class.JavaThread, ptr %3, i32 0, i32 6
  ret ptr %4
}

; Function Attrs: mustprogress nounwind uwtable
define linkonce_odr hidden noundef ptr @_ZNK11vframeArray12unroll_blockEv(ptr noundef nonnull align 8 dereferenceable(5160) %0) #1 comdat align 2 {
  %2 = alloca ptr, align 8
  store ptr %0, ptr %2, align 8
  %3 = load ptr, ptr %2, align 8
  %4 = getelementptr inbounds %class.vframeArray, ptr %3, i32 0, i32 4
  %5 = load ptr, ptr %4, align 8
  ret ptr %5
}

; Function Attrs: mustprogress nounwind uwtable
define linkonce_odr hidden noundef ptr @_ZNK10JavaThread17vframe_array_headEv(ptr noundef nonnull align 8 dereferenceable(1800) %0) #1 comdat align 2 {
  %2 = alloca ptr, align 8
  store ptr %0, ptr %2, align 8
  %3 = load ptr, ptr %2, align 8
  %4 = getelementptr inbounds %class.JavaThread, ptr %3, i32 0, i32 11
  %5 = load ptr, ptr %4, align 8
  ret ptr %5
}

; Function Attrs: mustprogress nounwind uwtable
define linkonce_odr hidden noundef ptr @_ZNK5frame2spEv(ptr noundef nonnull align 8 dereferenceable(56) %0) #1 comdat align 2 {
  %2 = alloca ptr, align 8
  store ptr %0, ptr %2, align 8
  %3 = load ptr, ptr %2, align 8
  call void @_ZNK5frame15assert_absoluteEv(ptr noundef nonnull align 8 dereferenceable(56) %3)
  %4 = getelementptr inbounds %class.frame, ptr %3, i32 0, i32 0
  %5 = load ptr, ptr %4, align 8
  ret ptr %5
}

; Function Attrs: mustprogress nounwind uwtable
define linkonce_odr hidden void @_ZN10JavaThread10last_frameEv(ptr dead_on_unwind noalias writable sret(%class.frame) align 8 %0, ptr noundef nonnull align 8 dereferenceable(1800) %1) #1 comdat align 2 {
  %3 = alloca ptr, align 8
  store ptr %1, ptr %3, align 8
  %4 = load ptr, ptr %3, align 8
  %5 = getelementptr inbounds %class.JavaThread, ptr %4, i32 0, i32 6
  call void @_ZN15JavaFrameAnchor13make_walkableEv(ptr noundef nonnull align 8 dereferenceable(24) %5)
  call void @_ZN10JavaThread13pd_last_frameEv(ptr dead_on_unwind writable sret(%class.frame) align 8 %0, ptr noundef nonnull align 8 dereferenceable(1800) %4)
  ret void
}

; Function Attrs: mustprogress nounwind uwtable
define linkonce_odr hidden void @_ZN10HandleMarkC2EP6Thread(ptr noundef nonnull align 8 dereferenceable(56) %0, ptr noundef %1) unnamed_addr #1 comdat align 2 {
  %3 = alloca ptr, align 8
  %4 = alloca ptr, align 8
  store ptr %0, ptr %3, align 8
  store ptr %1, ptr %4, align 8
  %5 = load ptr, ptr %3, align 8
  %6 = load ptr, ptr %4, align 8
  call void @_ZN10HandleMark10initializeEP6Thread(ptr noundef nonnull align 8 dereferenceable(56) %5, ptr noundef %6)
  ret void
}

; Function Attrs: mustprogress nounwind uwtable
define linkonce_odr hidden void @_ZN17ResetNoHandleMarkC2Ev(ptr noundef nonnull align 4 dereferenceable(4) %0) unnamed_addr #1 comdat align 2 {
  %2 = alloca ptr, align 8
  store ptr %0, ptr %2, align 8
  ret void
}

; Function Attrs: mustprogress nounwind uwtable
define linkonce_odr hidden void @_ZN2os22verify_stack_alignmentEv() #1 comdat align 2 {
  ret void
}

; Function Attrs: mustprogress nounwind uwtable
define hidden noundef zeroext i8 @_ZN14Deoptimization13unpack_framesEP10JavaThreadi(ptr noundef %0, i32 noundef %1) #1 align 2 {
  %3 = alloca ptr, align 8
  %4 = alloca i32, align 4
  %5 = alloca %class.ResetNoHandleMark, align 4
  %6 = alloca %class.HandleMark, align 8
  %7 = alloca %class.frame, align 8
  %8 = alloca ptr, align 8
  %9 = alloca ptr, align 8
  %10 = alloca ptr, align 8
  %11 = alloca i8, align 1
  store ptr %0, ptr %3, align 8
  store i32 %1, ptr %4, align 4
  call void @_ZN2os22verify_stack_alignmentEv()
  call void @_ZN17ResetNoHandleMarkC2Ev(ptr noundef nonnull align 4 dereferenceable(4) %5)
  %12 = load ptr, ptr %3, align 8
  call void @_ZN10HandleMarkC2EP6Thread(ptr noundef nonnull align 8 dereferenceable(56) %6, ptr noundef %12)
  %13 = load ptr, ptr %3, align 8
  call void @_ZN10JavaThread10last_frameEv(ptr dead_on_unwind writable sret(%class.frame) align 8 %7, ptr noundef nonnull align 8 dereferenceable(1800) %13)
  %14 = load ptr, ptr %3, align 8
  %15 = call noundef ptr @_ZNK5frame2spEv(ptr noundef nonnull align 8 dereferenceable(56) %7)
  call void @_ZN12Continuation12notify_deoptEP10JavaThreadPl(ptr noundef %14, ptr noundef %15)
  %16 = load ptr, ptr %3, align 8
  %17 = call noundef ptr @_ZNK10JavaThread17vframe_array_headEv(ptr noundef nonnull align 8 dereferenceable(1800) %16)
  store ptr %17, ptr %8, align 8
  %18 = load ptr, ptr %8, align 8
  %19 = call noundef ptr @_ZNK11vframeArray12unroll_blockEv(ptr noundef nonnull align 8 dereferenceable(5160) %18)
  store ptr %19, ptr %9, align 8
  %20 = load ptr, ptr %3, align 8
  %21 = call noundef ptr @_ZN10JavaThread12frame_anchorEv(ptr noundef nonnull align 8 dereferenceable(1800) %20)
  %22 = call noundef ptr @_ZNK15JavaFrameAnchor12last_Java_spEv(ptr noundef nonnull align 8 dereferenceable(24) %21)
  store ptr %22, ptr %10, align 8
  %23 = load ptr, ptr %3, align 8
  %24 = call noundef ptr @_ZN10JavaThread12frame_anchorEv(ptr noundef nonnull align 8 dereferenceable(1800) %23)
  call void @_ZN15JavaFrameAnchor16set_last_Java_spEPl(ptr noundef nonnull align 8 dereferenceable(24) %24, ptr noundef null)
  %25 = load ptr, ptr %8, align 8
  %26 = load i32, ptr %4, align 4
  %27 = load ptr, ptr %9, align 8
  %28 = call noundef i32 @_ZNK14Deoptimization11UnrollBlock24caller_actual_parametersEv(ptr noundef nonnull align 8 dereferenceable(80) %27)
  call void @_ZN11vframeArray15unpack_to_stackER5frameii(ptr noundef nonnull align 8 dereferenceable(5160) %25, ptr noundef nonnull align 8 dereferenceable(56) %7, i32 noundef %26, i32 noundef %28)
  %29 = load ptr, ptr %3, align 8
  %30 = call noundef ptr @_ZN10JavaThread12frame_anchorEv(ptr noundef nonnull align 8 dereferenceable(1800) %29)
  %31 = load ptr, ptr %10, align 8
  call void @_ZN15JavaFrameAnchor16set_last_Java_spEPl(ptr noundef nonnull align 8 dereferenceable(24) %30, ptr noundef %31)
  %32 = load ptr, ptr %9, align 8
  %33 = call noundef zeroext i8 @_ZNK14Deoptimization11UnrollBlock11return_typeEv(ptr noundef nonnull align 8 dereferenceable(80) %32)
  store i8 %33, ptr %11, align 1
  %34 = load i32, ptr %4, align 4
  %35 = icmp eq i32 %34, 1
  br i1 %35, label %36, label %37

36:                                               ; preds = %2
  store i8 12, ptr %11, align 1
  br label %37

37:                                               ; preds = %36, %2
  %38 = load ptr, ptr %3, align 8
  %39 = load ptr, ptr %8, align 8
  call void @_ZN14Deoptimization18cleanup_deopt_infoEP10JavaThreadP11vframeArray(ptr noundef %38, ptr noundef %39)
  %40 = load i8, ptr %11, align 1
  call void @_ZN10HandleMarkD1Ev(ptr noundef nonnull align 8 dereferenceable(56) %6) #11
  call void @_ZN17ResetNoHandleMarkD2Ev(ptr noundef nonnull align 4 dereferenceable(4) %5) #11
  ret i8 %40
}