; Function Attrs: mustprogress nounwind uwtable
define hidden noundef zeroext i8 @_ZN14Deoptimization13unpack_framesEP10JavaThreadi(ptr noundef %0, i32 noundef %1) local_unnamed_addr #0 align 2 {
  %3 = alloca %class.HandleMark, align 8
  %4 = alloca %class.frame, align 8
  call void @_ZN10HandleMark10initializeEP6Thread(ptr noundef nonnull align 8 dereferenceable(56) %3, ptr noundef %0) #22
  %5 = getelementptr inbounds i8, ptr %0, i64 928
  call void @_ZN15JavaFrameAnchor13make_walkableEv(ptr noundef nonnull align 8 dereferenceable(24) %5) #22, !noalias !41
  call void @_ZN10JavaThread13pd_last_frameEv(ptr dead_on_unwind nonnull writable sret(%class.frame) align 8 %4, ptr noundef nonnull align 8 dereferenceable(1800) %0) #22
  %6 = load ptr, ptr %4, align 8
  call void @_ZN12Continuation12notify_deoptEP10JavaThreadPl(ptr noundef nonnull %0, ptr noundef %6) #22
  %7 = getelementptr inbounds i8, ptr %0, i64 984
  %8 = load ptr, ptr %7, align 8
  %9 = getelementptr inbounds i8, ptr %8, i64 176
  %10 = load ptr, ptr %9, align 8
  %11 = load volatile ptr, ptr %5, align 8
  store volatile ptr null, ptr %5, align 8
  %12 = getelementptr inbounds i8, ptr %10, i64 56
  %13 = load i32, ptr %12, align 8
  call void @_ZN11vframeArray15unpack_to_stackER5frameii(ptr noundef nonnull align 8 dereferenceable(5160) %8, ptr noundef nonnull align 8 dereferenceable(56) %4, i32 noundef %1, i32 noundef %13) #22
  store volatile ptr %11, ptr %5, align 8
  %14 = getelementptr inbounds i8, ptr %10, i64 40
  %15 = load i8, ptr %14, align 8
  %16 = icmp eq i32 %1, 1
  %spec.store.select = select i1 %16, i8 12, i8 %15
  call void @_ZN14Deoptimization18cleanup_deopt_infoEP10JavaThreadP11vframeArray(ptr noundef nonnull %0, ptr noundef nonnull %8)
  call void @_ZN10HandleMarkD1Ev(ptr noundef nonnull align 8 dereferenceable(56) %3) #22
  ret i8 %spec.store.select
}